; ModuleID = '36/24.c'
source_filename = "36/24.c"
target datalayout = "e-m:e-p270:32:32-p271:32:32-p272:64:64-i64:64-f80:128-n8:16:32:64-S128"
target triple = "x86_64-pc-linux-gnu"

@.str = private unnamed_addr constant [6 x i8] c"%s %s\00", align 1
@.str.1 = private unnamed_addr constant [3 x i8] c"NO\00", align 1
@.str.2 = private unnamed_addr constant [4 x i8] c"YES\00", align 1

; Function Attrs: noinline nounwind uwtable
define dso_local i32 @main() #0 {
  %1 = alloca i32, align 4
  %2 = alloca i32, align 4
  %3 = alloca i32, align 4
  %4 = alloca i32, align 4
  %5 = alloca i32, align 4
  %6 = alloca [100 x i8], align 16
  %7 = alloca [100 x i8], align 16
  store i32 0, i32* %1, align 4
  store i32 0, i32* %5, align 4
  %8 = getelementptr inbounds [100 x i8], [100 x i8]* %6, i64 0, i64 0
  %9 = getelementptr inbounds [100 x i8], [100 x i8]* %7, i64 0, i64 0
  %10 = call i32 (i8*, ...) @__isoc99_scanf(i8* getelementptr inbounds ([6 x i8], [6 x i8]* @.str, i64 0, i64 0), i8* %8, i8* %9)
  store i32 0, i32* %2, align 4
  br label %11

11:                                               ; preds = %18, %0
  %12 = load i32, i32* %2, align 4
  %13 = sext i32 %12 to i64
  %14 = getelementptr inbounds [100 x i8], [100 x i8]* %6, i64 0, i64 %13
  %15 = load i8, i8* %14, align 1
  %16 = sext i8 %15 to i32
  %17 = icmp ne i32 %16, 0
  br i1 %17, label %18, label %21

18:                                               ; preds = %11
  %19 = load i32, i32* %2, align 4
  %20 = add nsw i32 %19, 1
  store i32 %20, i32* %2, align 4
  br label %11

21:                                               ; preds = %11
  store i32 0, i32* %4, align 4
  br label %22

22:                                               ; preds = %29, %21
  %23 = load i32, i32* %4, align 4
  %24 = sext i32 %23 to i64
  %25 = getelementptr inbounds [100 x i8], [100 x i8]* %7, i64 0, i64 %24
  %26 = load i8, i8* %25, align 1
  %27 = sext i8 %26 to i32
  %28 = icmp ne i32 %27, 0
  br i1 %28, label %29, label %32

29:                                               ; preds = %22
  %30 = load i32, i32* %4, align 4
  %31 = add nsw i32 %30, 1
  store i32 %31, i32* %4, align 4
  br label %22

32:                                               ; preds = %22
  %33 = load i32, i32* %2, align 4
  %34 = load i32, i32* %4, align 4
  %35 = icmp ne i32 %33, %34
  br i1 %35, label %36, label %38

36:                                               ; preds = %32
  %37 = call i32 (i8*, ...) @printf(i8* getelementptr inbounds ([3 x i8], [3 x i8]* @.str.1, i64 0, i64 0))
  br label %80

38:                                               ; preds = %32
  store i32 0, i32* %2, align 4
  br label %39

39:                                               ; preds = %68, %38
  %40 = load i32, i32* %2, align 4
  %41 = load i32, i32* %4, align 4
  %42 = icmp slt i32 %40, %41
  br i1 %42, label %43, label %71

43:                                               ; preds = %39
  store i32 0, i32* %3, align 4
  br label %44

44:                                               ; preds = %64, %43
  %45 = load i32, i32* %3, align 4
  %46 = load i32, i32* %4, align 4
  %47 = icmp slt i32 %45, %46
  br i1 %47, label %48, label %67

48:                                               ; preds = %44
  %49 = load i32, i32* %2, align 4
  %50 = sext i32 %49 to i64
  %51 = getelementptr inbounds [100 x i8], [100 x i8]* %6, i64 0, i64 %50
  %52 = load i8, i8* %51, align 1
  %53 = sext i8 %52 to i32
  %54 = load i32, i32* %3, align 4
  %55 = sext i32 %54 to i64
  %56 = getelementptr inbounds [100 x i8], [100 x i8]* %7, i64 0, i64 %55
  %57 = load i8, i8* %56, align 1
  %58 = sext i8 %57 to i32
  %59 = icmp eq i32 %53, %58
  br i1 %59, label %60, label %63

60:                                               ; preds = %48
  %61 = load i32, i32* %5, align 4
  %62 = add nsw i32 %61, 1
  store i32 %62, i32* %5, align 4
  br label %67

63:                                               ; preds = %48
  br label %64

64:                                               ; preds = %63
  %65 = load i32, i32* %3, align 4
  %66 = add nsw i32 %65, 1
  store i32 %66, i32* %3, align 4
  br label %44

67:                                               ; preds = %60, %44
  br label %68

68:                                               ; preds = %67
  %69 = load i32, i32* %2, align 4
  %70 = add nsw i32 %69, 1
  store i32 %70, i32* %2, align 4
  br label %39

71:                                               ; preds = %39
  %72 = load i32, i32* %5, align 4
  %73 = load i32, i32* %4, align 4
  %74 = icmp eq i32 %72, %73
  br i1 %74, label %75, label %77

75:                                               ; preds = %71
  %76 = call i32 (i8*, ...) @printf(i8* getelementptr inbounds ([4 x i8], [4 x i8]* @.str.2, i64 0, i64 0))
  br label %79

77:                                               ; preds = %71
  %78 = call i32 (i8*, ...) @printf(i8* getelementptr inbounds ([3 x i8], [3 x i8]* @.str.1, i64 0, i64 0))
  br label %79

79:                                               ; preds = %77, %75
  br label %80

80:                                               ; preds = %79, %36
  %81 = load i32, i32* %1, align 4
  ret i32 %81
}

declare dso_local i32 @__isoc99_scanf(i8*, ...) #1

declare dso_local i32 @printf(i8*, ...) #1


!llvm.module.flags = !{!0}
!llvm.ident = !{!1}

!0 = !{i32 1, !"wchar_size", i32 4}
!1 = !{!"clang version 10.0.0-4ubuntu1 "}
